target datalayout = "e-m:e-p270:32:32-p271:32:32-p272:64:64-i64:64-i128:128-f80:128-n8:16:32:64-S128"
target triple = "x86_64-pc-linux-gnu"

%struct.FT_Vector_ = type { i64, i64 }
%struct.FT_StrokeBorderRec_ = type { i32, i32, ptr, ptr, i8, i32, ptr, i8 }

; Function Attrs: nounwind uwtable
define internal i32 @ft_stroke_border_grow(ptr noundef %0, i32 noundef %1) #0 {
  %3 = alloca ptr, align 8
  %4 = alloca i32, align 4
  %5 = alloca i32, align 4
  %6 = alloca i32, align 4
  %7 = alloca i32, align 4
  %8 = alloca i32, align 4
  %9 = alloca ptr, align 8
  store ptr %0, ptr %3, align 8
  store i32 %1, ptr %4, align 4
  %10 = load ptr, ptr %3, align 8
  %11 = getelementptr inbounds %struct.FT_StrokeBorderRec_, ptr %10, i32 0, i32 1
  %12 = load i32, ptr %11, align 4
  store i32 %12, ptr %5, align 4
  %13 = load ptr, ptr %3, align 8
  %14 = getelementptr inbounds %struct.FT_StrokeBorderRec_, ptr %13, i32 0, i32 0
  %15 = load i32, ptr %14, align 8
  %16 = load i32, ptr %4, align 4
  %17 = add i32 %15, %16
  store i32 %17, ptr %6, align 4
  store i32 0, ptr %7, align 4
  %18 = load i32, ptr %6, align 4
  %19 = load i32, ptr %5, align 4
  %20 = icmp ugt i32 %18, %19
  br i1 %20, label %21, label %69

21:                                               ; preds = %2
  %22 = load i32, ptr %5, align 4
  store i32 %22, ptr %8, align 4
  %23 = load ptr, ptr %3, align 8
  %24 = getelementptr inbounds %struct.FT_StrokeBorderRec_, ptr %23, i32 0, i32 6
  %25 = load ptr, ptr %24, align 8
  store ptr %25, ptr %9, align 8
  br label %26

26:                                               ; preds = %30, %21
  %27 = load i32, ptr %8, align 4
  %28 = load i32, ptr %6, align 4
  %29 = icmp ult i32 %27, %28
  br i1 %29, label %30, label %36

30:                                               ; preds = %26
  %31 = load i32, ptr %8, align 4
  %32 = lshr i32 %31, 1
  %33 = add i32 %32, 16
  %34 = load i32, ptr %8, align 4
  %35 = add i32 %34, %33
  store i32 %35, ptr %8, align 4
  br label %26, !llvm.loop !20

36:                                               ; preds = %26
  %37 = load ptr, ptr %9, align 8
  %38 = load i32, ptr %5, align 4
  %39 = zext i32 %38 to i64
  %40 = load i32, ptr %8, align 4
  %41 = zext i32 %40 to i64
  %42 = load ptr, ptr %3, align 8
  %43 = getelementptr inbounds %struct.FT_StrokeBorderRec_, ptr %42, i32 0, i32 2
  %44 = load ptr, ptr %43, align 8
  %45 = call ptr @ft_mem_realloc(ptr noundef %37, i64 noundef 16, i64 noundef %39, i64 noundef %41, ptr noundef %44, ptr noundef %7)
  %46 = load ptr, ptr %3, align 8
  %47 = getelementptr inbounds %struct.FT_StrokeBorderRec_, ptr %46, i32 0, i32 2
  store ptr %45, ptr %47, align 8
  %48 = load i32, ptr %7, align 4
  %49 = icmp ne i32 %48, 0
  br i1 %49, label %64, label %50

50:                                               ; preds = %36
  %51 = load ptr, ptr %9, align 8
  %52 = load i32, ptr %5, align 4
  %53 = zext i32 %52 to i64
  %54 = load i32, ptr %8, align 4
  %55 = zext i32 %54 to i64
  %56 = load ptr, ptr %3, align 8
  %57 = getelementptr inbounds %struct.FT_StrokeBorderRec_, ptr %56, i32 0, i32 3
  %58 = load ptr, ptr %57, align 8
  %59 = call ptr @ft_mem_realloc(ptr noundef %51, i64 noundef 1, i64 noundef %53, i64 noundef %55, ptr noundef %58, ptr noundef %7)
  %60 = load ptr, ptr %3, align 8
  %61 = getelementptr inbounds %struct.FT_StrokeBorderRec_, ptr %60, i32 0, i32 3
  store ptr %59, ptr %61, align 8
  %62 = load i32, ptr %7, align 4
  %63 = icmp ne i32 %62, 0
  br i1 %63, label %64, label %65

64:                                               ; preds = %50, %36
  br label %70

65:                                               ; preds = %50
  %66 = load i32, ptr %8, align 4
  %67 = load ptr, ptr %3, align 8
  %68 = getelementptr inbounds %struct.FT_StrokeBorderRec_, ptr %67, i32 0, i32 1
  store i32 %66, ptr %68, align 4
  br label %69

69:                                               ; preds = %65, %2
  br label %70

70:                                               ; preds = %69, %64
  %71 = load i32, ptr %7, align 4
  ret i32 %71
}

; Function Attrs: nounwind uwtable
define internal i32 @ft_stroke_border_conicto(ptr noundef %0, ptr noundef %1, ptr noundef %2) #0 {
  %4 = alloca ptr, align 8
  %5 = alloca ptr, align 8
  %6 = alloca ptr, align 8
  %7 = alloca i32, align 4
  %8 = alloca ptr, align 8
  %9 = alloca ptr, align 8
  store ptr %0, ptr %4, align 8
  store ptr %1, ptr %5, align 8
  store ptr %2, ptr %6, align 8
  br label %10

10:                                               ; preds = %3
  br label %11

11:                                               ; preds = %10
  %12 = load ptr, ptr %4, align 8
  %13 = call i32 @ft_stroke_border_grow(ptr noundef %12, i32 noundef 2)
  store i32 %13, ptr %7, align 4
  %14 = load i32, ptr %7, align 4
  %15 = icmp ne i32 %14, 0
  br i1 %15, label %47, label %16

16:                                               ; preds = %11
  %17 = load ptr, ptr %4, align 8
  %18 = getelementptr inbounds %struct.FT_StrokeBorderRec_, ptr %17, i32 0, i32 2
  %19 = load ptr, ptr %18, align 8
  %20 = load ptr, ptr %4, align 8
  %21 = getelementptr inbounds %struct.FT_StrokeBorderRec_, ptr %20, i32 0, i32 0
  %22 = load i32, ptr %21, align 8
  %23 = zext i32 %22 to i64
  %24 = getelementptr inbounds %struct.FT_Vector_, ptr %19, i64 %23
  store ptr %24, ptr %8, align 8
  %25 = load ptr, ptr %4, align 8
  %26 = getelementptr inbounds %struct.FT_StrokeBorderRec_, ptr %25, i32 0, i32 3
  %27 = load ptr, ptr %26, align 8
  %28 = load ptr, ptr %4, align 8
  %29 = getelementptr inbounds %struct.FT_StrokeBorderRec_, ptr %28, i32 0, i32 0
  %30 = load i32, ptr %29, align 8
  %31 = zext i32 %30 to i64
  %32 = getelementptr inbounds i8, ptr %27, i64 %31
  store ptr %32, ptr %9, align 8
  %33 = load ptr, ptr %8, align 8
  %34 = getelementptr inbounds %struct.FT_Vector_, ptr %33, i64 0
  %35 = load ptr, ptr %5, align 8
  call void @llvm.memcpy.p0.p0.i64(ptr align 8 %34, ptr align 8 %35, i64 16, i1 false)
  %36 = load ptr, ptr %8, align 8
  %37 = getelementptr inbounds %struct.FT_Vector_, ptr %36, i64 1
  %38 = load ptr, ptr %6, align 8
  call void @llvm.memcpy.p0.p0.i64(ptr align 8 %37, ptr align 8 %38, i64 16, i1 false)
  %39 = load ptr, ptr %9, align 8
  %40 = getelementptr inbounds i8, ptr %39, i64 0
  store i8 0, ptr %40, align 1
  %41 = load ptr, ptr %9, align 8
  %42 = getelementptr inbounds i8, ptr %41, i64 1
  store i8 1, ptr %42, align 1
  %43 = load ptr, ptr %4, align 8
  %44 = getelementptr inbounds %struct.FT_StrokeBorderRec_, ptr %43, i32 0, i32 0
  %45 = load i32, ptr %44, align 8
  %46 = add i32 %45, 2
  store i32 %46, ptr %44, align 8
  br label %47

47:                                               ; preds = %16, %11
  %48 = load ptr, ptr %4, align 8
  %49 = getelementptr inbounds %struct.FT_StrokeBorderRec_, ptr %48, i32 0, i32 4
  store i8 0, ptr %49, align 8
  %50 = load i32, ptr %7, align 4
  ret i32 %50
}