; Function Attrs: nounwind uwtable
define internal fastcc i32 @ft_stroke_border_conicto(ptr noundef nonnull captures(none) %0, ptr noundef nonnull readonly captures(none) %1, ptr noundef nonnull readonly captures(none) %2) unnamed_addr #0 {
  %4 = alloca i32, align 4
  call void @llvm.lifetime.start.p0(i64 4, ptr nonnull %4)
  %5 = getelementptr inbounds nuw i8, ptr %0, i64 4
  %6 = load i32, ptr %5, align 4
  %7 = load i32, ptr %0, align 8
  %8 = add i32 %7, 2
  store i32 0, ptr %4, align 4
  %9 = icmp ugt i32 %8, %6
  br i1 %9, label %10, label %._crit_edge

._crit_edge:                                      ; preds = %3
  %.phi.trans.insert = getelementptr inbounds nuw i8, ptr %0, i64 16
  %.pre15 = load ptr, ptr %.phi.trans.insert, align 8
  br label %32

10:                                               ; preds = %3
  %11 = getelementptr inbounds nuw i8, ptr %0, i64 32
  %12 = load ptr, ptr %11, align 8
  br label %13

13:                                               ; preds = %13, %10
  %.025.i = phi i32 [ %6, %10 ], [ %16, %13 ]
  %14 = lshr i32 %.025.i, 1
  %15 = add i32 %.025.i, 16
  %16 = add i32 %15, %14
  %17 = icmp ult i32 %16, %8
  br i1 %17, label %13, label %18, !llvm.loop !6

18:                                               ; preds = %13
  %19 = zext i32 %6 to i64
  %20 = zext i32 %16 to i64
  %21 = getelementptr inbounds nuw i8, ptr %0, i64 8
  %22 = load ptr, ptr %21, align 8
  %23 = call ptr @ft_mem_realloc(ptr noundef %12, i64 noundef 16, i64 noundef %19, i64 noundef %20, ptr noundef %22, ptr noundef nonnull %4) #11
  store ptr %23, ptr %21, align 8
  %24 = load i32, ptr %4, align 4
  %.not.i = icmp eq i32 %24, 0
  br i1 %.not.i, label %25, label %ft_stroke_border_grow.exit

25:                                               ; preds = %18
  %26 = getelementptr inbounds nuw i8, ptr %0, i64 16
  %27 = load ptr, ptr %26, align 8
  %28 = call ptr @ft_mem_realloc(ptr noundef %12, i64 noundef 1, i64 noundef %19, i64 noundef %20, ptr noundef %27, ptr noundef nonnull %4) #11
  store ptr %28, ptr %26, align 8
  %29 = load i32, ptr %4, align 4
  %.not24.i = icmp eq i32 %29, 0
  br i1 %.not24.i, label %30, label %ft_stroke_border_grow.exit

30:                                               ; preds = %25
  store i32 %16, ptr %5, align 4
  %.pre = load i32, ptr %0, align 8
  br label %32

ft_stroke_border_grow.exit:                       ; preds = %18, %25
  %31 = phi i32 [ %24, %18 ], [ %29, %25 ]
  call void @llvm.lifetime.end.p0(i64 4, ptr nonnull %4)
  br label %44

32:                                               ; preds = %._crit_edge, %30
  %33 = phi ptr [ %.pre15, %._crit_edge ], [ %28, %30 ]
  %34 = phi i32 [ %7, %._crit_edge ], [ %.pre, %30 ]
  call void @llvm.lifetime.end.p0(i64 4, ptr nonnull %4)
  %35 = getelementptr inbounds nuw i8, ptr %0, i64 8
  %36 = load ptr, ptr %35, align 8
  %37 = zext i32 %34 to i64
  %38 = getelementptr inbounds nuw %struct.FT_Vector_, ptr %36, i64 %37
  %39 = getelementptr inbounds nuw i8, ptr %33, i64 %37
  call void @llvm.memcpy.p0.p0.i64(ptr noundef nonnull align 8 dereferenceable(16) %38, ptr noundef nonnull align 8 dereferenceable(16) %1, i64 16, i1 false)
  %40 = getelementptr inbounds nuw i8, ptr %38, i64 16
  call void @llvm.memcpy.p0.p0.i64(ptr noundef nonnull align 8 dereferenceable(16) %40, ptr noundef nonnull align 8 dereferenceable(16) %2, i64 16, i1 false)
  store i8 0, ptr %39, align 1
  %41 = getelementptr inbounds nuw i8, ptr %39, i64 1
  store i8 1, ptr %41, align 1
  %42 = load i32, ptr %0, align 8
  %43 = add i32 %42, 2
  store i32 %43, ptr %0, align 8
  br label %44

44:                                               ; preds = %ft_stroke_border_grow.exit, %32
  %45 = phi i32 [ 0, %32 ], [ %31, %ft_stroke_border_grow.exit ]
  %46 = getelementptr inbounds nuw i8, ptr %0, i64 24
  store i8 0, ptr %46, align 8
  ret i32 %45
}